(lp0
(iinclude_types
filetype
p1
(dp2
S'goodsize'
p3
I5120
sS'extension'
p4
S'avi'
p5
sba(iinclude_types
filetype
p6
(dp7
g3
I5120
sg4
S'mkv'
p8
sba(iinclude_types
filetype
p9
(dp10
g3
I5120
sg4
S'wmv'
p11
sba(iinclude_types
filetype
p12
(dp13
g3
I5120
sg4
S'ogv'
p14
sba(iinclude_types
filetype
p15
(dp16
g3
I0
sg4
S'srt'
p17
sba(iinclude_types
filetype
p18
(dp19
g3
I0
sg4
S'ass'
p20
sba(iinclude_types
filetype
p21
(dp22
g3
I5120
sg4
S'm4v'
p23
sba(iinclude_types
filetype
p24
(dp25
g3
I100
sg4
S'mp3'
p26
sba(iinclude_types
filetype
p27
(dp28
g3
I0
sg4
S'sub'
p29
sba(iinclude_types
filetype
p30
(dp31
g3
I0
sg4
S'sfv'
p32
sba(iinclude_types
filetype
p33
(dp34
S'goodsize'
p35
I5120
sS'extension'
p36
S'mp4'
p37
sba(iinclude_types
filetype
p38
(dp39
S'goodsize'
p40
I5120
sS'extension'
p41
S'flv'
p42
sba(iinclude_types
filetype
p43
(dp44
S'goodsize'
p45
I100
sS'extension'
p46
S'djvu'
p47
sba(iinclude_types
filetype
p48
(dp49
S'goodsize'
p50
I5120
sS'extension'
p51
S'ogm'
p52
sba.